target datalayout = "e-m:e-p270:32:32-p271:32:32-p272:64:64-i64:64-i128:128-f80:128-n8:16:32:64-S128"
target triple = "x86_64-pc-linux-gnu"

%struct.ACCESS_DESCRIPTION_st = type { ptr, ptr }

@.str.14 = private unnamed_addr constant [30 x i8] c"../openssl/test/ocspapitest.c\00", align 1
@.str.45 = private unnamed_addr constant [3 x i8] c"ad\00", align 1
@.str.46 = private unnamed_addr constant [13 x i8] c"ad->location\00", align 1

; Function Attrs: nounwind uwtable
define internal i32 @test_access_description(i32 noundef %0) #0 {
  %2 = alloca i32, align 4
  %3 = alloca ptr, align 8
  %4 = alloca i32, align 4
  store i32 %0, ptr %2, align 4, !tbaa !17
  call void @llvm.lifetime.start.p0(i64 8, ptr %3) #7
  %5 = call ptr @ACCESS_DESCRIPTION_new()
  store ptr %5, ptr %3, align 8, !tbaa !19
  call void @llvm.lifetime.start.p0(i64 4, ptr %4) #7
  store i32 0, ptr %4, align 4, !tbaa !17
  %6 = load ptr, ptr %3, align 8, !tbaa !19
  %7 = call i32 @test_ptr(ptr noundef @.str.14, i32 noundef 162, ptr noundef @.str.45, ptr noundef %6)
  %8 = icmp ne i32 %7, 0
  br i1 %8, label %10, label %9

9:                                                ; preds = %1
  br label %41

10:                                               ; preds = %1
  %11 = load i32, ptr %2, align 4, !tbaa !17
  switch i32 %11, label %39 [
    i32 0, label %39
    i32 1, label %12
    i32 2, label %25
  ]

12:                                               ; preds = %10
  %13 = load ptr, ptr %3, align 8, !tbaa !19
  %14 = getelementptr inbounds nuw %struct.ACCESS_DESCRIPTION_st, ptr %13, i32 0, i32 1
  %15 = load ptr, ptr %14, align 8, !tbaa !21
  %16 = call i32 @test_ptr(ptr noundef @.str.14, i32 noundef 169, ptr noundef @.str.46, ptr noundef %15)
  %17 = icmp ne i32 %16, 0
  br i1 %17, label %19, label %18

18:                                               ; preds = %12
  br label %41

19:                                               ; preds = %12
  %20 = load ptr, ptr %3, align 8, !tbaa !19
  %21 = getelementptr inbounds nuw %struct.ACCESS_DESCRIPTION_st, ptr %20, i32 0, i32 1
  %22 = load ptr, ptr %21, align 8, !tbaa !21
  call void @GENERAL_NAME_free(ptr noundef %22)
  %23 = load ptr, ptr %3, align 8, !tbaa !19
  %24 = getelementptr inbounds nuw %struct.ACCESS_DESCRIPTION_st, ptr %23, i32 0, i32 1
  store ptr null, ptr %24, align 8, !tbaa !21
  br label %39

25:                                               ; preds = %10
  %26 = load ptr, ptr %3, align 8, !tbaa !19
  %27 = getelementptr inbounds nuw %struct.ACCESS_DESCRIPTION_st, ptr %26, i32 0, i32 1
  %28 = load ptr, ptr %27, align 8, !tbaa !21
  call void @GENERAL_NAME_free(ptr noundef %28)
  %29 = call ptr @GENERAL_NAME_new()
  %30 = load ptr, ptr %3, align 8, !tbaa !19
  %31 = getelementptr inbounds nuw %struct.ACCESS_DESCRIPTION_st, ptr %30, i32 0, i32 1
  store ptr %29, ptr %31, align 8, !tbaa !21
  %32 = load ptr, ptr %3, align 8, !tbaa !19
  %33 = getelementptr inbounds nuw %struct.ACCESS_DESCRIPTION_st, ptr %32, i32 0, i32 1
  %34 = load ptr, ptr %33, align 8, !tbaa !21
  %35 = call i32 @test_ptr(ptr noundef @.str.14, i32 noundef 177, ptr noundef @.str.46, ptr noundef %34)
  %36 = icmp ne i32 %35, 0
  br i1 %36, label %38, label %37

37:                                               ; preds = %25
  br label %41

38:                                               ; preds = %25
  br label %39

39:                                               ; preds = %10, %38, %19, %10
  %40 = load ptr, ptr %3, align 8, !tbaa !19
  call void @ACCESS_DESCRIPTION_free(ptr noundef %40)
  store i32 1, ptr %4, align 4, !tbaa !17
  br label %41

41:                                               ; preds = %39, %37, %18, %9
  %42 = load i32, ptr %4, align 4, !tbaa !17
  call void @llvm.lifetime.end.p0(i64 4, ptr %4) #7
  call void @llvm.lifetime.end.p0(i64 8, ptr %3) #7
  ret i32 %42
}