; Function Attrs: nounwind uwtable
define internal range(i32 0, 2) i32 @test_access_description(i32 noundef %0) #1 {
  %2 = tail call ptr @ACCESS_DESCRIPTION_new() #7
  %3 = tail call i32 @test_ptr(ptr noundef nonnull @.str.14, i32 noundef 162, ptr noundef nonnull @.str.45, ptr noundef %2) #7
  %.not = icmp eq i32 %3, 0
  br i1 %.not, label %17, label %4

4:                                                ; preds = %1
  switch i32 %0, label %16 [
    i32 2, label %11
    i32 1, label %5
  ]

5:                                                ; preds = %4
  %6 = getelementptr inbounds nuw i8, ptr %2, i64 8
  %7 = load ptr, ptr %6, align 8, !tbaa !11
  %8 = tail call i32 @test_ptr(ptr noundef nonnull @.str.14, i32 noundef 169, ptr noundef nonnull @.str.46, ptr noundef %7) #7
  %.not9 = icmp eq i32 %8, 0
  br i1 %.not9, label %17, label %9

9:                                                ; preds = %5
  %10 = load ptr, ptr %6, align 8, !tbaa !11
  tail call void @GENERAL_NAME_free(ptr noundef %10) #7
  store ptr null, ptr %6, align 8, !tbaa !11
  br label %16

11:                                               ; preds = %4
  %12 = getelementptr inbounds nuw i8, ptr %2, i64 8
  %13 = load ptr, ptr %12, align 8, !tbaa !11
  tail call void @GENERAL_NAME_free(ptr noundef %13) #7
  %14 = tail call ptr @GENERAL_NAME_new() #7
  store ptr %14, ptr %12, align 8, !tbaa !11
  %15 = tail call i32 @test_ptr(ptr noundef nonnull @.str.14, i32 noundef 177, ptr noundef nonnull @.str.46, ptr noundef %14) #7
  %.not10 = icmp eq i32 %15, 0
  br i1 %.not10, label %17, label %16

16:                                               ; preds = %11, %9, %4
  tail call void @ACCESS_DESCRIPTION_free(ptr noundef %2) #7
  br label %17

17:                                               ; preds = %11, %5, %1, %16
  %.0 = phi i32 [ 1, %16 ], [ 0, %5 ], [ 0, %11 ], [ 0, %1 ]
  ret i32 %.0
}